; Function Attrs: mustprogress nounwind uwtable
define hidden noundef i64 @_ZN8XBarrier29mark_barrier_on_oop_slow_pathEm(i64 noundef %0) local_unnamed_addr #0 align 2 {
  %2 = load i64, ptr @XAddressMetadataMarked, align 8
  %3 = and i64 %2, %0
  %.not.i = icmp eq i64 %3, 0
  br i1 %.not.i, label %9, label %4

4:                                                ; preds = %1
  %5 = load i64, ptr @XAddressOffsetMask, align 8
  %6 = and i64 %5, %0
  %7 = load i64, ptr @XAddressGoodMask, align 8
  %8 = or i64 %6, %7
  br label %_ZN8XBarrier5remapEm.exit.i

9:                                                ; preds = %1
  %10 = load i64, ptr @XAddressMetadataRemapped, align 8
  %11 = and i64 %10, %0
  %.not8.i = icmp eq i64 %11, 0
  br i1 %.not8.i, label %17, label %12

12:                                               ; preds = %9
  %13 = load i64, ptr @XAddressOffsetMask, align 8
  %14 = and i64 %13, %0
  %15 = load i64, ptr @XAddressGoodMask, align 8
  %16 = or i64 %14, %15
  br label %_ZN8XBarrier5remapEm.exit.i

17:                                               ; preds = %9
  %18 = load ptr, ptr @_ZN5XHeap5_heapE, align 8
  %19 = load i64, ptr @XAddressOffsetMask, align 8
  %20 = and i64 %19, %0
  %21 = lshr i64 %20, 21
  %22 = getelementptr inbounds i8, ptr %18, i64 816
  %23 = load ptr, ptr %22, align 8
  %24 = getelementptr inbounds ptr, ptr %23, i64 %21
  %25 = load ptr, ptr %24, align 8
  %26 = icmp eq ptr %25, null
  br i1 %26, label %27, label %30

27:                                               ; preds = %17
  %28 = load i64, ptr @XAddressGoodMask, align 8
  %29 = or i64 %28, %20
  br label %_ZN8XBarrier5remapEm.exit.i

30:                                               ; preds = %17
  %31 = getelementptr inbounds i8, ptr %18, i64 3408
  %32 = load i64, ptr @XAddressGoodMask, align 8
  %33 = or i64 %32, %20
  %34 = tail call noundef i64 @_ZNK9XRelocate14forward_objectEP11XForwardingm(ptr noundef nonnull align 8 dereferenceable(8) %31, ptr noundef nonnull %25, i64 noundef %33) #9
  br label %_ZN8XBarrier5remapEm.exit.i

_ZN8XBarrier5remapEm.exit.i:                      ; preds = %30, %27, %12, %4
  %.0.i = phi i64 [ %8, %4 ], [ %16, %12 ], [ %29, %27 ], [ %34, %30 ]
  %35 = load i32, ptr @XGlobalPhase, align 4
  %36 = icmp eq i32 %35, 0
  br i1 %36, label %37, label %_ZN8XBarrier4markILb1ELb1ELb0ELb0EEEmm.exit

37:                                               ; preds = %_ZN8XBarrier5remapEm.exit.i
  %38 = load ptr, ptr @_ZN5XHeap5_heapE, align 8
  %39 = getelementptr inbounds i8, ptr %38, i64 832
  tail call void @_ZN5XMark11mark_objectILb1ELb1ELb0ELb0EEEvm(ptr noundef nonnull align 64 dereferenceable(2492) %39, i64 noundef %.0.i)
  br label %_ZN8XBarrier4markILb1ELb1ELb0ELb0EEEmm.exit

_ZN8XBarrier4markILb1ELb1ELb0ELb0EEEmm.exit:      ; preds = %_ZN8XBarrier5remapEm.exit.i, %37
  ret i64 %.0.i
}